; Function Attrs: mustprogress nofree norecurse nosync nounwind willreturn memory(readwrite, inaccessiblemem: none) uwtable
define internal fastcc void @ReleasePredXact(ptr noundef %0) unnamed_addr #9 {
  %2 = getelementptr inbounds nuw i8, ptr %0, i64 96
  %3 = getelementptr inbounds nuw i8, ptr %0, i64 104
  %4 = load ptr, ptr %3, align 8
  %5 = load ptr, ptr %2, align 8
  %6 = getelementptr inbounds nuw i8, ptr %5, i64 8
  store ptr %4, ptr %6, align 8
  %7 = load ptr, ptr %2, align 8
  store ptr %7, ptr %4, align 8
  %8 = load ptr, ptr @PredXact, align 8
  %9 = getelementptr inbounds nuw i8, ptr %8, i64 8
  %10 = load ptr, ptr %9, align 8
  %11 = icmp eq ptr %10, null
  br i1 %11, label %12, label %dlist_push_tail.exit

12:                                               ; preds = %1
  store ptr %8, ptr %8, align 8
  store ptr %8, ptr %9, align 8
  br label %dlist_push_tail.exit

dlist_push_tail.exit:                             ; preds = %1, %12
  store ptr %8, ptr %3, align 8
  %13 = load ptr, ptr %8, align 8
  store ptr %13, ptr %2, align 8
  %14 = getelementptr inbounds nuw i8, ptr %13, i64 8
  store ptr %2, ptr %14, align 8
  store ptr %2, ptr %8, align 8
  ret void
}